; Function Attrs: mustprogress uwtable
define hidden void @_ZN4cvc58internal3smt9SmtSolver9interruptEv(ptr noundef nonnull readonly align 8 captures(none) dereferenceable(1288) %0) local_unnamed_addr #4 align 2 {
  %2 = getelementptr inbounds nuw i8, ptr %0, i64 1088
  %3 = load ptr, ptr %2, align 8, !tbaa !41
  %.not = icmp eq ptr %3, null
  br i1 %.not, label %5, label %4

4:                                                ; preds = %1
  tail call void @_ZN4cvc58internal4prop10PropEngine9interruptEv(ptr noundef nonnull align 8 dereferenceable(416) %3)
  br label %5

5:                                                ; preds = %4, %1
  %6 = getelementptr inbounds nuw i8, ptr %0, i64 1080
  %7 = load ptr, ptr %6, align 8, !tbaa !43
  %.not1 = icmp eq ptr %7, null
  br i1 %.not1, label %9, label %8

8:                                                ; preds = %5
  tail call void @_ZN4cvc58internal12TheoryEngine9interruptEv(ptr noundef nonnull align 8 dereferenceable(1480) %7)
  br label %9

9:                                                ; preds = %8, %5
  ret void
}